target datalayout = "e-m:e-p270:32:32-p271:32:32-p272:64:64-i64:64-i128:128-f80:128-n8:16:32:64-S128"
target triple = "x86_64-pc-linux-gnu"

@var_names = internal constant [6 x ptr] [ptr @.str.21, ptr @.str.22, ptr @.str.23, ptr @.str.24, ptr @.str.25, ptr null], align 16
@.str.20 = private unnamed_addr constant [50 x i8] c"Error when evaluating the expression '%s' for %s\0A\00", align 1

; Function Attrs: nounwind uwtable
define internal i32 @set_expr(ptr noundef %0, ptr noundef %1, ptr noundef %2, ptr noundef %3, ptr noundef %4) #1 {
  %6 = alloca i32, align 4
  %7 = alloca ptr, align 8
  %8 = alloca ptr, align 8
  %9 = alloca ptr, align 8
  %10 = alloca ptr, align 8
  %11 = alloca ptr, align 8
  %12 = alloca i32, align 4
  %13 = alloca ptr, align 8
  %14 = alloca ptr, align 8
  %15 = alloca i32, align 4
  store ptr %0, ptr %7, align 8, !tbaa !106
  store ptr %1, ptr %8, align 8, !tbaa !108
  store ptr %2, ptr %9, align 8, !tbaa !37
  store ptr %3, ptr %10, align 8, !tbaa !37
  store ptr %4, ptr %11, align 8, !tbaa !109
  call void @llvm.lifetime.start.p0(i64 4, ptr %12) #9
  call void @llvm.lifetime.start.p0(i64 8, ptr %13) #9
  call void @llvm.lifetime.start.p0(i64 8, ptr %14) #9
  %16 = load ptr, ptr %9, align 8, !tbaa !37
  %17 = call noalias ptr @av_strdup(ptr noundef %16)
  store ptr %17, ptr %14, align 8, !tbaa !37
  %18 = load ptr, ptr %14, align 8, !tbaa !37
  %19 = icmp ne ptr %18, null
  br i1 %19, label %21, label %20

20:                                               ; preds = %5
  store i32 -12, ptr %6, align 4
  store i32 1, ptr %15, align 4
  br label %46

21:                                               ; preds = %5
  %22 = load ptr, ptr %9, align 8, !tbaa !37
  %23 = load ptr, ptr %11, align 8, !tbaa !109
  %24 = call i32 @av_expr_parse(ptr noundef %13, ptr noundef %22, ptr noundef @var_names, ptr noundef null, ptr noundef null, ptr noundef null, ptr noundef null, i32 noundef 0, ptr noundef %23)
  store i32 %24, ptr %12, align 4, !tbaa !30
  %25 = load i32, ptr %12, align 4, !tbaa !30
  %26 = icmp slt i32 %25, 0
  br i1 %26, label %27, label %33

27:                                               ; preds = %21
  %28 = load ptr, ptr %11, align 8, !tbaa !109
  %29 = load ptr, ptr %9, align 8, !tbaa !37
  %30 = load ptr, ptr %10, align 8, !tbaa !37
  call void (ptr, i32, ptr, ...) @av_log(ptr noundef %28, i32 noundef 16, ptr noundef @.str.20, ptr noundef %29, ptr noundef %30)
  %31 = load ptr, ptr %14, align 8, !tbaa !37
  call void @av_free(ptr noundef %31)
  %32 = load i32, ptr %12, align 4, !tbaa !30
  store i32 %32, ptr %6, align 4
  store i32 1, ptr %15, align 4
  br label %46

33:                                               ; preds = %21
  %34 = load ptr, ptr %7, align 8, !tbaa !106
  %35 = load ptr, ptr %34, align 8, !tbaa !110
  %36 = icmp ne ptr %35, null
  br i1 %36, label %37, label %40

37:                                               ; preds = %33
  %38 = load ptr, ptr %7, align 8, !tbaa !106
  %39 = load ptr, ptr %38, align 8, !tbaa !110
  call void @av_expr_free(ptr noundef %39)
  br label %40

40:                                               ; preds = %37, %33
  %41 = load ptr, ptr %13, align 8, !tbaa !110
  %42 = load ptr, ptr %7, align 8, !tbaa !106
  store ptr %41, ptr %42, align 8, !tbaa !110
  %43 = load ptr, ptr %8, align 8, !tbaa !108
  call void @av_freep(ptr noundef %43)
  %44 = load ptr, ptr %14, align 8, !tbaa !37
  %45 = load ptr, ptr %8, align 8, !tbaa !108
  store ptr %44, ptr %45, align 8, !tbaa !37
  store i32 0, ptr %6, align 4
  store i32 1, ptr %15, align 4
  br label %46

46:                                               ; preds = %40, %27, %20
  call void @llvm.lifetime.end.p0(i64 8, ptr %14) #9
  call void @llvm.lifetime.end.p0(i64 8, ptr %13) #9
  call void @llvm.lifetime.end.p0(i64 4, ptr %12) #9
  %47 = load i32, ptr %6, align 4
  ret i32 %47
}