; Function Attrs: nounwind uwtable
define internal fastcc range(i32 -2147483648, 1) i32 @set_expr(ptr noundef captures(none) %0, ptr noundef %1, ptr noundef %2, ptr noundef %3, ptr noundef %4) unnamed_addr #1 {
  %6 = alloca ptr, align 8
  call void @llvm.lifetime.start.p0(i64 8, ptr nonnull %6) #6
  %7 = tail call noalias ptr @av_strdup(ptr noundef %2) #6
  %.not = icmp eq ptr %7, null
  br i1 %.not, label %17, label %8

8:                                                ; preds = %5
  %9 = call i32 @av_expr_parse(ptr noundef nonnull %6, ptr noundef %2, ptr noundef nonnull @var_names, ptr noundef null, ptr noundef null, ptr noundef null, ptr noundef null, i32 noundef 0, ptr noundef %4) #6
  %10 = icmp slt i32 %9, 0
  br i1 %10, label %11, label %12

11:                                               ; preds = %8
  call void (ptr, i32, ptr, ...) @av_log(ptr noundef %4, i32 noundef 16, ptr noundef nonnull @.str.20, ptr noundef %2, ptr noundef %3) #6
  call void @av_free(ptr noundef nonnull %7) #6
  br label %17

12:                                               ; preds = %8
  %13 = load ptr, ptr %0, align 8, !tbaa !94
  %.not19 = icmp eq ptr %13, null
  br i1 %.not19, label %15, label %14

14:                                               ; preds = %12
  call void @av_expr_free(ptr noundef nonnull %13) #6
  br label %15

15:                                               ; preds = %14, %12
  %16 = load ptr, ptr %6, align 8, !tbaa !94
  store ptr %16, ptr %0, align 8, !tbaa !94
  call void @av_freep(ptr noundef %1) #6
  store ptr %7, ptr %1, align 8, !tbaa !77
  br label %17

17:                                               ; preds = %5, %15, %11
  %.0 = phi i32 [ %9, %11 ], [ 0, %15 ], [ -12, %5 ]
  call void @llvm.lifetime.end.p0(i64 8, ptr nonnull %6) #6
  ret i32 %.0
}